target datalayout = "e-m:e-p270:32:32-p271:32:32-p272:64:64-i64:64-i128:128-f80:128-n8:16:32:64-S128"
target triple = "x86_64-pc-linux-gnu"

%struct.variable = type { ptr, ptr, i32, ptr }
%struct.ECPGtype = type { i32, ptr, ptr, ptr, %union.anon, i32 }
%union.anon = type { ptr }

@.str.3 = private unnamed_addr constant [31 x i8] c"variable \22%s\22 is not a pointer\00", align 1
@.str.15 = private unnamed_addr constant [57 x i8] c"variable \22%s\22 is not a pointer to a structure or a union\00", align 1
@.str.16 = private unnamed_addr constant [49 x i8] c"variable \22%s\22 is neither a structure nor a union\00", align 1
@.str.17 = private unnamed_addr constant [30 x i8] c"variable \22%s\22 is not an array\00", align 1

; Function Attrs: nounwind uwtable
define internal ptr @find_struct(ptr noundef %0, ptr noundef %1, ptr noundef %2) #0 {
  %4 = alloca ptr, align 8
  %5 = alloca ptr, align 8
  %6 = alloca ptr, align 8
  %7 = alloca ptr, align 8
  %8 = alloca ptr, align 8
  %9 = alloca i8, align 1
  %10 = alloca i32, align 4
  store ptr %0, ptr %5, align 8
  store ptr %1, ptr %6, align 8
  store ptr %2, ptr %7, align 8
  call void @llvm.lifetime.start.p0(i64 8, ptr %8) #7
  call void @llvm.lifetime.start.p0(i64 1, ptr %9) #7
  %11 = load ptr, ptr %6, align 8
  %12 = load i8, ptr %11, align 1
  store i8 %12, ptr %9, align 1
  %13 = load ptr, ptr %6, align 8
  store i8 0, ptr %13, align 1
  %14 = load ptr, ptr %5, align 8
  %15 = call ptr @find_variable(ptr noundef %14)
  store ptr %15, ptr %8, align 8
  %16 = load i8, ptr %9, align 1
  %17 = sext i8 %16 to i32
  %18 = icmp eq i32 %17, 45
  br i1 %18, label %19, label %65

19:                                               ; preds = %3
  %20 = load ptr, ptr %8, align 8
  %21 = getelementptr inbounds nuw %struct.variable, ptr %20, i32 0, i32 1
  %22 = load ptr, ptr %21, align 8
  %23 = getelementptr inbounds nuw %struct.ECPGtype, ptr %22, i32 0, i32 0
  %24 = load i32, ptr %23, align 8
  %25 = icmp ne i32 %24, 21
  br i1 %25, label %26, label %28

26:                                               ; preds = %19
  %27 = load ptr, ptr %5, align 8
  call void (i32, ptr, ...) @mmfatal(i32 noundef 3, ptr noundef @.str.3, ptr noundef %27) #9
  unreachable

28:                                               ; preds = %19
  %29 = load ptr, ptr %8, align 8
  %30 = getelementptr inbounds nuw %struct.variable, ptr %29, i32 0, i32 1
  %31 = load ptr, ptr %30, align 8
  %32 = getelementptr inbounds nuw %struct.ECPGtype, ptr %31, i32 0, i32 4
  %33 = load ptr, ptr %32, align 8
  %34 = getelementptr inbounds nuw %struct.ECPGtype, ptr %33, i32 0, i32 0
  %35 = load i32, ptr %34, align 8
  %36 = icmp ne i32 %35, 22
  br i1 %36, label %37, label %48

37:                                               ; preds = %28
  %38 = load ptr, ptr %8, align 8
  %39 = getelementptr inbounds nuw %struct.variable, ptr %38, i32 0, i32 1
  %40 = load ptr, ptr %39, align 8
  %41 = getelementptr inbounds nuw %struct.ECPGtype, ptr %40, i32 0, i32 4
  %42 = load ptr, ptr %41, align 8
  %43 = getelementptr inbounds nuw %struct.ECPGtype, ptr %42, i32 0, i32 0
  %44 = load i32, ptr %43, align 8
  %45 = icmp ne i32 %44, 23
  br i1 %45, label %46, label %48

46:                                               ; preds = %37
  %47 = load ptr, ptr %5, align 8
  call void (i32, ptr, ...) @mmfatal(i32 noundef 3, ptr noundef @.str.15, ptr noundef %47) #9
  unreachable

48:                                               ; preds = %37, %28
  %49 = load i8, ptr %9, align 1
  %50 = load ptr, ptr %6, align 8
  store i8 %49, ptr %50, align 1
  %51 = load ptr, ptr %5, align 8
  %52 = load ptr, ptr %7, align 8
  %53 = getelementptr inbounds nuw i8, ptr %52, i32 1
  store ptr %53, ptr %7, align 8
  %54 = load ptr, ptr %8, align 8
  %55 = getelementptr inbounds nuw %struct.variable, ptr %54, i32 0, i32 1
  %56 = load ptr, ptr %55, align 8
  %57 = getelementptr inbounds nuw %struct.ECPGtype, ptr %56, i32 0, i32 4
  %58 = load ptr, ptr %57, align 8
  %59 = getelementptr inbounds nuw %struct.ECPGtype, ptr %58, i32 0, i32 4
  %60 = load ptr, ptr %59, align 8
  %61 = load ptr, ptr %8, align 8
  %62 = getelementptr inbounds nuw %struct.variable, ptr %61, i32 0, i32 2
  %63 = load i32, ptr %62, align 8
  %64 = call ptr @find_struct_member(ptr noundef %51, ptr noundef %53, ptr noundef %60, i32 noundef %63)
  store ptr %64, ptr %4, align 8
  store i32 1, ptr %10, align 4
  br label %144

65:                                               ; preds = %3
  %66 = load ptr, ptr %6, align 8
  %67 = load ptr, ptr %7, align 8
  %68 = icmp eq ptr %66, %67
  br i1 %68, label %69, label %99

69:                                               ; preds = %65
  %70 = load ptr, ptr %8, align 8
  %71 = getelementptr inbounds nuw %struct.variable, ptr %70, i32 0, i32 1
  %72 = load ptr, ptr %71, align 8
  %73 = getelementptr inbounds nuw %struct.ECPGtype, ptr %72, i32 0, i32 0
  %74 = load i32, ptr %73, align 8
  %75 = icmp ne i32 %74, 22
  br i1 %75, label %76, label %85

76:                                               ; preds = %69
  %77 = load ptr, ptr %8, align 8
  %78 = getelementptr inbounds nuw %struct.variable, ptr %77, i32 0, i32 1
  %79 = load ptr, ptr %78, align 8
  %80 = getelementptr inbounds nuw %struct.ECPGtype, ptr %79, i32 0, i32 0
  %81 = load i32, ptr %80, align 8
  %82 = icmp ne i32 %81, 23
  br i1 %82, label %83, label %85

83:                                               ; preds = %76
  %84 = load ptr, ptr %5, align 8
  call void (i32, ptr, ...) @mmfatal(i32 noundef 3, ptr noundef @.str.16, ptr noundef %84) #9
  unreachable

85:                                               ; preds = %76, %69
  %86 = load i8, ptr %9, align 1
  %87 = load ptr, ptr %6, align 8
  store i8 %86, ptr %87, align 1
  %88 = load ptr, ptr %5, align 8
  %89 = load ptr, ptr %7, align 8
  %90 = load ptr, ptr %8, align 8
  %91 = getelementptr inbounds nuw %struct.variable, ptr %90, i32 0, i32 1
  %92 = load ptr, ptr %91, align 8
  %93 = getelementptr inbounds nuw %struct.ECPGtype, ptr %92, i32 0, i32 4
  %94 = load ptr, ptr %93, align 8
  %95 = load ptr, ptr %8, align 8
  %96 = getelementptr inbounds nuw %struct.variable, ptr %95, i32 0, i32 2
  %97 = load i32, ptr %96, align 8
  %98 = call ptr @find_struct_member(ptr noundef %88, ptr noundef %89, ptr noundef %94, i32 noundef %97)
  store ptr %98, ptr %4, align 8
  store i32 1, ptr %10, align 4
  br label %144

99:                                               ; preds = %65
  %100 = load ptr, ptr %8, align 8
  %101 = getelementptr inbounds nuw %struct.variable, ptr %100, i32 0, i32 1
  %102 = load ptr, ptr %101, align 8
  %103 = getelementptr inbounds nuw %struct.ECPGtype, ptr %102, i32 0, i32 0
  %104 = load i32, ptr %103, align 8
  %105 = icmp ne i32 %104, 21
  br i1 %105, label %106, label %108

106:                                              ; preds = %99
  %107 = load ptr, ptr %5, align 8
  call void (i32, ptr, ...) @mmfatal(i32 noundef 3, ptr noundef @.str.17, ptr noundef %107) #9
  unreachable

108:                                              ; preds = %99
  %109 = load ptr, ptr %8, align 8
  %110 = getelementptr inbounds nuw %struct.variable, ptr %109, i32 0, i32 1
  %111 = load ptr, ptr %110, align 8
  %112 = getelementptr inbounds nuw %struct.ECPGtype, ptr %111, i32 0, i32 4
  %113 = load ptr, ptr %112, align 8
  %114 = getelementptr inbounds nuw %struct.ECPGtype, ptr %113, i32 0, i32 0
  %115 = load i32, ptr %114, align 8
  %116 = icmp ne i32 %115, 22
  br i1 %116, label %117, label %128

117:                                              ; preds = %108
  %118 = load ptr, ptr %8, align 8
  %119 = getelementptr inbounds nuw %struct.variable, ptr %118, i32 0, i32 1
  %120 = load ptr, ptr %119, align 8
  %121 = getelementptr inbounds nuw %struct.ECPGtype, ptr %120, i32 0, i32 4
  %122 = load ptr, ptr %121, align 8
  %123 = getelementptr inbounds nuw %struct.ECPGtype, ptr %122, i32 0, i32 0
  %124 = load i32, ptr %123, align 8
  %125 = icmp ne i32 %124, 23
  br i1 %125, label %126, label %128

126:                                              ; preds = %117
  %127 = load ptr, ptr %5, align 8
  call void (i32, ptr, ...) @mmfatal(i32 noundef 3, ptr noundef @.str.15, ptr noundef %127) #9
  unreachable

128:                                              ; preds = %117, %108
  %129 = load i8, ptr %9, align 1
  %130 = load ptr, ptr %6, align 8
  store i8 %129, ptr %130, align 1
  %131 = load ptr, ptr %5, align 8
  %132 = load ptr, ptr %7, align 8
  %133 = load ptr, ptr %8, align 8
  %134 = getelementptr inbounds nuw %struct.variable, ptr %133, i32 0, i32 1
  %135 = load ptr, ptr %134, align 8
  %136 = getelementptr inbounds nuw %struct.ECPGtype, ptr %135, i32 0, i32 4
  %137 = load ptr, ptr %136, align 8
  %138 = getelementptr inbounds nuw %struct.ECPGtype, ptr %137, i32 0, i32 4
  %139 = load ptr, ptr %138, align 8
  %140 = load ptr, ptr %8, align 8
  %141 = getelementptr inbounds nuw %struct.variable, ptr %140, i32 0, i32 2
  %142 = load i32, ptr %141, align 8
  %143 = call ptr @find_struct_member(ptr noundef %131, ptr noundef %132, ptr noundef %139, i32 noundef %142)
  store ptr %143, ptr %4, align 8
  store i32 1, ptr %10, align 4
  br label %144

144:                                              ; preds = %128, %85, %48
  call void @llvm.lifetime.end.p0(i64 1, ptr %9) #7
  call void @llvm.lifetime.end.p0(i64 8, ptr %8) #7
  %145 = load ptr, ptr %4, align 8
  ret ptr %145
}