; Function Attrs: nounwind uwtable
define internal fastcc ptr @find_struct(ptr noundef %0, ptr noundef nonnull captures(address) %1, ptr noundef nonnull %2) unnamed_addr #0 {
  %4 = load i8, ptr %1, align 1
  store i8 0, ptr %1, align 1
  %5 = tail call ptr @find_variable(ptr noundef %0)
  %6 = icmp eq i8 %4, 45
  br i1 %6, label %7, label %22

7:                                                ; preds = %3
  %8 = getelementptr inbounds nuw i8, ptr %5, i64 8
  %9 = load ptr, ptr %8, align 8
  %10 = load i32, ptr %9, align 8
  %.not47 = icmp eq i32 %10, 21
  br i1 %.not47, label %12, label %11

11:                                               ; preds = %7
  tail call void (i32, ptr, ...) @mmfatal(i32 noundef 3, ptr noundef nonnull @.str.3, ptr noundef %0) #8
  unreachable

12:                                               ; preds = %7
  %13 = getelementptr inbounds nuw i8, ptr %9, i64 32
  %14 = load ptr, ptr %13, align 8
  %15 = load i32, ptr %14, align 8
  %16 = and i32 %15, -2
  %switch = icmp eq i32 %16, 22
  br i1 %switch, label %18, label %17

17:                                               ; preds = %12
  tail call void (i32, ptr, ...) @mmfatal(i32 noundef 3, ptr noundef nonnull @.str.15, ptr noundef %0) #8
  unreachable

18:                                               ; preds = %12
  store i8 45, ptr %1, align 1
  %19 = getelementptr inbounds nuw i8, ptr %2, i64 1
  %20 = load ptr, ptr %8, align 8
  %21 = getelementptr inbounds nuw i8, ptr %20, i64 32
  br label %42

22:                                               ; preds = %3
  %23 = icmp eq ptr %1, %2
  %24 = getelementptr inbounds nuw i8, ptr %5, i64 8
  %25 = load ptr, ptr %24, align 8
  %26 = load i32, ptr %25, align 8
  br i1 %23, label %27, label %31

27:                                               ; preds = %22
  %28 = and i32 %26, -2
  %switch51 = icmp eq i32 %28, 22
  br i1 %switch51, label %30, label %29

29:                                               ; preds = %27
  tail call void (i32, ptr, ...) @mmfatal(i32 noundef 3, ptr noundef nonnull @.str.16, ptr noundef %0) #8
  unreachable

30:                                               ; preds = %27
  store i8 %4, ptr %1, align 1
  br label %42

31:                                               ; preds = %22
  %.not = icmp eq i32 %26, 21
  br i1 %.not, label %33, label %32

32:                                               ; preds = %31
  tail call void (i32, ptr, ...) @mmfatal(i32 noundef 3, ptr noundef nonnull @.str.17, ptr noundef %0) #8
  unreachable

33:                                               ; preds = %31
  %34 = getelementptr inbounds nuw i8, ptr %25, i64 32
  %35 = load ptr, ptr %34, align 8
  %36 = load i32, ptr %35, align 8
  %37 = and i32 %36, -2
  %switch53 = icmp eq i32 %37, 22
  br i1 %switch53, label %39, label %38

38:                                               ; preds = %33
  tail call void (i32, ptr, ...) @mmfatal(i32 noundef 3, ptr noundef nonnull @.str.15, ptr noundef %0) #8
  unreachable

39:                                               ; preds = %33
  store i8 %4, ptr %1, align 1
  %40 = load ptr, ptr %24, align 8
  %41 = getelementptr inbounds nuw i8, ptr %40, i64 32
  br label %42

42:                                               ; preds = %39, %30, %18
  %.sink58.in = phi ptr [ %41, %39 ], [ %24, %30 ], [ %21, %18 ]
  %.sink = phi ptr [ %2, %39 ], [ %2, %30 ], [ %19, %18 ]
  %.sink58 = load ptr, ptr %.sink58.in, align 8
  %43 = getelementptr inbounds nuw i8, ptr %.sink58, i64 32
  %44 = load ptr, ptr %43, align 8
  %45 = getelementptr inbounds nuw i8, ptr %5, i64 16
  %46 = load i32, ptr %45, align 8
  %47 = tail call fastcc ptr @find_struct_member(ptr noundef %0, ptr noundef %.sink, ptr noundef %44, i32 noundef %46)
  ret ptr %47
}